target datalayout = "e-m:e-p270:32:32-p271:32:32-p272:64:64-i64:64-i128:128-f80:128-n8:16:32:64-S128"
target triple = "x86_64-pc-linux-gnu"

%"class.std::__cxx11::basic_string" = type { %"struct.std::__cxx11::basic_string<char>::_Alloc_hider", i64, %union.anon }
%"struct.std::__cxx11::basic_string<char>::_Alloc_hider" = type { ptr }
%union.anon = type { i64, [8 x i8] }
%"class.std::allocator" = type { i8 }

@.str.28 = private unnamed_addr constant [1 x i8] zeroinitializer, align 1
@.str.29 = private unnamed_addr constant [3 x i8] c"%d\00", align 1

; Function Attrs: mustprogress uwtable
define hidden void @_ZN6cvtest7vec2strERKNSt7__cxx1112basic_stringIcSt11char_traitsIcESaIcEEEPKim(ptr dead_on_unwind noalias writable sret(%"class.std::__cxx11::basic_string") align 8 %0, ptr noundef nonnull align 8 dereferenceable(32) %1, ptr noundef %2, i64 noundef %3) #6 personality ptr @__gxx_personality_v0 {
  %5 = alloca ptr, align 8
  %6 = alloca ptr, align 8
  %7 = alloca ptr, align 8
  %8 = alloca i64, align 8
  %9 = alloca [32 x i8], align 16
  %10 = alloca i1, align 1
  %11 = alloca %"class.std::allocator", align 1
  %12 = alloca ptr, align 8
  %13 = alloca i32, align 4
  %14 = alloca i64, align 8
  %15 = alloca %"class.std::__cxx11::basic_string", align 8
  %16 = alloca %"class.std::allocator", align 1
  store ptr %0, ptr %5, align 8
  store ptr %1, ptr %6, align 8
  store ptr %2, ptr %7, align 8
  store i64 %3, ptr %8, align 8
  store i1 false, ptr %10, align 1
  call void @_ZNSaIcEC1Ev(ptr noundef nonnull align 1 dereferenceable(1) %11) #3
  invoke void @_ZNSt7__cxx1112basic_stringIcSt11char_traitsIcESaIcEEC1EPKcRKS3_(ptr noundef nonnull align 8 dereferenceable(32) %0, ptr noundef @.str.28, ptr noundef nonnull align 1 dereferenceable(1) %11)
          to label %17 unwind label %41

17:                                               ; preds = %4
  call void @_ZNSaIcED1Ev(ptr noundef nonnull align 1 dereferenceable(1) %11) #3
  store i64 0, ptr %14, align 8
  br label %18

18:                                               ; preds = %59, %17
  %19 = load i64, ptr %14, align 8
  %20 = load i64, ptr %8, align 8
  %21 = icmp ult i64 %19, %20
  br i1 %21, label %22, label %62

22:                                               ; preds = %18
  %23 = getelementptr inbounds [32 x i8], ptr %9, i64 0, i64 0
  %24 = load ptr, ptr %7, align 8
  %25 = load i64, ptr %14, align 8
  %26 = getelementptr inbounds i32, ptr %24, i64 %25
  %27 = load i32, ptr %26, align 4
  %28 = call i32 (ptr, i64, ptr, ...) @snprintf(ptr noundef %23, i64 noundef 32, ptr noundef @.str.29, i32 noundef %27) #3
  %29 = getelementptr inbounds [32 x i8], ptr %9, i64 0, i64 0
  call void @_ZNSaIcEC1Ev(ptr noundef nonnull align 1 dereferenceable(1) %16) #3
  invoke void @_ZNSt7__cxx1112basic_stringIcSt11char_traitsIcESaIcEEC1EPKcRKS3_(ptr noundef nonnull align 8 dereferenceable(32) %15, ptr noundef %29, ptr noundef nonnull align 1 dereferenceable(1) %16)
          to label %30 unwind label %45

30:                                               ; preds = %22
  %31 = invoke noundef nonnull align 8 dereferenceable(32) ptr @_ZNSt7__cxx1112basic_stringIcSt11char_traitsIcESaIcEEpLERKS4_(ptr noundef nonnull align 8 dereferenceable(32) %0, ptr noundef nonnull align 8 dereferenceable(32) %15)
          to label %32 unwind label %49

32:                                               ; preds = %30
  call void @_ZNSt7__cxx1112basic_stringIcSt11char_traitsIcESaIcEED1Ev(ptr noundef nonnull align 8 dereferenceable(32) %15) #3
  call void @_ZNSaIcED1Ev(ptr noundef nonnull align 1 dereferenceable(1) %16) #3
  %33 = load i64, ptr %14, align 8
  %34 = load i64, ptr %8, align 8
  %35 = sub i64 %34, 1
  %36 = icmp ult i64 %33, %35
  br i1 %36, label %37, label %58

37:                                               ; preds = %32
  %38 = load ptr, ptr %6, align 8
  %39 = invoke noundef nonnull align 8 dereferenceable(32) ptr @_ZNSt7__cxx1112basic_stringIcSt11char_traitsIcESaIcEEpLERKS4_(ptr noundef nonnull align 8 dereferenceable(32) %0, ptr noundef nonnull align 8 dereferenceable(32) %38)
          to label %40 unwind label %54

40:                                               ; preds = %37
  br label %58

41:                                               ; preds = %4
  %42 = landingpad { ptr, i32 }
          cleanup
  %43 = extractvalue { ptr, i32 } %42, 0
  store ptr %43, ptr %12, align 8
  %44 = extractvalue { ptr, i32 } %42, 1
  store i32 %44, ptr %13, align 4
  call void @_ZNSaIcED1Ev(ptr noundef nonnull align 1 dereferenceable(1) %11) #3
  br label %67

45:                                               ; preds = %22
  %46 = landingpad { ptr, i32 }
          cleanup
  %47 = extractvalue { ptr, i32 } %46, 0
  store ptr %47, ptr %12, align 8
  %48 = extractvalue { ptr, i32 } %46, 1
  store i32 %48, ptr %13, align 4
  br label %53

49:                                               ; preds = %30
  %50 = landingpad { ptr, i32 }
          cleanup
  %51 = extractvalue { ptr, i32 } %50, 0
  store ptr %51, ptr %12, align 8
  %52 = extractvalue { ptr, i32 } %50, 1
  store i32 %52, ptr %13, align 4
  call void @_ZNSt7__cxx1112basic_stringIcSt11char_traitsIcESaIcEED1Ev(ptr noundef nonnull align 8 dereferenceable(32) %15) #3
  br label %53

53:                                               ; preds = %49, %45
  call void @_ZNSaIcED1Ev(ptr noundef nonnull align 1 dereferenceable(1) %16) #3
  br label %66

54:                                               ; preds = %37
  %55 = landingpad { ptr, i32 }
          cleanup
  %56 = extractvalue { ptr, i32 } %55, 0
  store ptr %56, ptr %12, align 8
  %57 = extractvalue { ptr, i32 } %55, 1
  store i32 %57, ptr %13, align 4
  br label %66

58:                                               ; preds = %40, %32
  br label %59

59:                                               ; preds = %58
  %60 = load i64, ptr %14, align 8
  %61 = add i64 %60, 1
  store i64 %61, ptr %14, align 8
  br label %18, !llvm.loop !6

62:                                               ; preds = %18
  store i1 true, ptr %10, align 1
  %63 = load i1, ptr %10, align 1
  br i1 %63, label %65, label %64

64:                                               ; preds = %62
  call void @_ZNSt7__cxx1112basic_stringIcSt11char_traitsIcESaIcEED1Ev(ptr noundef nonnull align 8 dereferenceable(32) %0) #3
  br label %65

65:                                               ; preds = %64, %62
  ret void

66:                                               ; preds = %54, %53
  call void @_ZNSt7__cxx1112basic_stringIcSt11char_traitsIcESaIcEED1Ev(ptr noundef nonnull align 8 dereferenceable(32) %0) #3
  br label %67

67:                                               ; preds = %66, %41
  %68 = load ptr, ptr %12, align 8
  %69 = load i32, ptr %13, align 4
  %70 = insertvalue { ptr, i32 } poison, ptr %68, 0
  %71 = insertvalue { ptr, i32 } %70, i32 %69, 1
  resume { ptr, i32 } %71
}