; Function Attrs: mustprogress uwtable
define hidden void @_ZN6cvtest7vec2strERKNSt7__cxx1112basic_stringIcSt11char_traitsIcESaIcEEEPKim(ptr dead_on_unwind noalias writable sret(%"class.std::__cxx11::basic_string") align 8 %0, ptr noundef nonnull align 8 dereferenceable(32) %1, ptr nocapture noundef readonly %2, i64 noundef %3) local_unnamed_addr #6 personality ptr @__gxx_personality_v0 {
  %5 = alloca [32 x i8], align 16
  %6 = alloca %"class.std::allocator", align 1
  %7 = alloca %"class.std::__cxx11::basic_string", align 8
  %8 = alloca %"class.std::allocator", align 1
  call void @_ZNSaIcEC1Ev(ptr noundef nonnull align 1 dereferenceable(1) %6) #28
  invoke void @_ZNSt7__cxx1112basic_stringIcSt11char_traitsIcESaIcEEC1EPKcRKS3_(ptr noundef nonnull align 8 dereferenceable(32) %0, ptr noundef nonnull @.str.28, ptr noundef nonnull align 1 dereferenceable(1) %6)
          to label %9 unwind label %21

9:                                                ; preds = %4
  call void @_ZNSaIcED1Ev(ptr noundef nonnull align 1 dereferenceable(1) %6) #28
  %.not = icmp eq i64 %3, 0
  br i1 %.not, label %._crit_edge, label %.lr.ph

.lr.ph:                                           ; preds = %9
  %10 = add i64 %3, -1
  br label %11

11:                                               ; preds = %.lr.ph, %30
  %.019 = phi i64 [ 0, %.lr.ph ], [ %31, %30 ]
  %12 = getelementptr inbounds i32, ptr %2, i64 %.019
  %13 = load i32, ptr %12, align 4
  %14 = call i32 (ptr, i64, ptr, ...) @snprintf(ptr noundef nonnull dereferenceable(1) %5, i64 noundef 32, ptr noundef nonnull @.str.29, i32 noundef %13) #28
  call void @_ZNSaIcEC1Ev(ptr noundef nonnull align 1 dereferenceable(1) %8) #28
  invoke void @_ZNSt7__cxx1112basic_stringIcSt11char_traitsIcESaIcEEC1EPKcRKS3_(ptr noundef nonnull align 8 dereferenceable(32) %7, ptr noundef nonnull %5, ptr noundef nonnull align 1 dereferenceable(1) %8)
          to label %15 unwind label %23

15:                                               ; preds = %11
  %16 = invoke noundef nonnull align 8 dereferenceable(32) ptr @_ZNSt7__cxx1112basic_stringIcSt11char_traitsIcESaIcEEpLERKS4_(ptr noundef nonnull align 8 dereferenceable(32) %0, ptr noundef nonnull align 8 dereferenceable(32) %7)
          to label %17 unwind label %25

17:                                               ; preds = %15
  call void @_ZNSt7__cxx1112basic_stringIcSt11char_traitsIcESaIcEED1Ev(ptr noundef nonnull align 8 dereferenceable(32) %7) #28
  call void @_ZNSaIcED1Ev(ptr noundef nonnull align 1 dereferenceable(1) %8) #28
  %18 = icmp ult i64 %.019, %10
  br i1 %18, label %19, label %30

19:                                               ; preds = %17
  %20 = invoke noundef nonnull align 8 dereferenceable(32) ptr @_ZNSt7__cxx1112basic_stringIcSt11char_traitsIcESaIcEEpLERKS4_(ptr noundef nonnull align 8 dereferenceable(32) %0, ptr noundef nonnull align 8 dereferenceable(32) %1)
          to label %30 unwind label %28

21:                                               ; preds = %4
  %22 = landingpad { ptr, i32 }
          cleanup
  call void @_ZNSaIcED1Ev(ptr noundef nonnull align 1 dereferenceable(1) %6) #28
  br label %33

23:                                               ; preds = %11
  %24 = landingpad { ptr, i32 }
          cleanup
  br label %27

25:                                               ; preds = %15
  %26 = landingpad { ptr, i32 }
          cleanup
  call void @_ZNSt7__cxx1112basic_stringIcSt11char_traitsIcESaIcEED1Ev(ptr noundef nonnull align 8 dereferenceable(32) %7) #28
  br label %27

27:                                               ; preds = %25, %23
  %.pn = phi { ptr, i32 } [ %26, %25 ], [ %24, %23 ]
  call void @_ZNSaIcED1Ev(ptr noundef nonnull align 1 dereferenceable(1) %8) #28
  br label %32

28:                                               ; preds = %19
  %29 = landingpad { ptr, i32 }
          cleanup
  br label %32

30:                                               ; preds = %17, %19
  %31 = add nuw i64 %.019, 1
  %exitcond.not = icmp eq i64 %31, %3
  br i1 %exitcond.not, label %._crit_edge, label %11, !llvm.loop !6

._crit_edge:                                      ; preds = %30, %9
  ret void

32:                                               ; preds = %28, %27
  %.pn16 = phi { ptr, i32 } [ %29, %28 ], [ %.pn, %27 ]
  call void @_ZNSt7__cxx1112basic_stringIcSt11char_traitsIcESaIcEED1Ev(ptr noundef nonnull align 8 dereferenceable(32) %0) #28
  br label %33

33:                                               ; preds = %32, %21
  %.pn16.pn = phi { ptr, i32 } [ %.pn16, %32 ], [ %22, %21 ]
  resume { ptr, i32 } %.pn16.pn
}